; Function Attrs: mustprogress uwtable
define noundef double @_ZNK8QuantLib30GeneralizedBlackScholesProcess12stdDeviationEddd(ptr noundef nonnull align 8 dereferenceable(250) %this, double noundef %t0, double noundef %x0, double noundef %dt) unnamed_addr #7 align 2 {
entry:
  %call = tail call noundef nonnull align 8 dereferenceable(16) ptr @_ZNK8QuantLib30GeneralizedBlackScholesProcess15localVolatilityEv(ptr noundef nonnull align 8 dereferenceable(250) %this)
  %isStrikeIndependent_ = getelementptr inbounds nuw i8, ptr %this, i64 249
  %0 = load i8, ptr %isStrikeIndependent_, align 1, !tbaa !86, !range !26, !noundef !27
  %loadedv = trunc nuw i8 %0 to i1
  br i1 %loadedv, label %land.lhs.true, label %if.else

land.lhs.true:                                    ; preds = %entry
  %forceDiscretization_ = getelementptr inbounds nuw i8, ptr %this, i64 224
  %1 = load i8, ptr %forceDiscretization_, align 8, !tbaa !67, !range !26, !noundef !27
  %loadedv2 = trunc nuw i8 %1 to i1
  br i1 %loadedv2, label %if.else, label %if.then

if.then:                                          ; preds = %land.lhs.true
  %vtable = load ptr, ptr %this, align 8, !tbaa !49
  %vfn = getelementptr inbounds i8, ptr %vtable, i64 160
  %2 = load ptr, ptr %vfn, align 8
  %call3 = tail call noundef double %2(ptr noundef nonnull align 8 dereferenceable(250) %this, double noundef %t0, double noundef %x0, double noundef %dt)
  %call4 = tail call double @sqrt(double noundef %call3) #29, !tbaa !155
  br label %return

if.else:                                          ; preds = %land.lhs.true, %entry
  %discretization_ = getelementptr inbounds nuw i8, ptr %this, i64 128
  %3 = load ptr, ptr %discretization_, align 8, !tbaa !57
  %cmp.not.i = icmp eq ptr %3, null
  br i1 %cmp.not.i, label %cond.false.i, label %_ZNK5boost10shared_ptrIN8QuantLib19StochasticProcess1D14discretizationEEptEv.exit, !prof !128

cond.false.i:                                     ; preds = %if.else
  tail call void @_ZN5boost16assertion_failedEPKcS1_S1_l(ptr noundef nonnull @.str.9, ptr noundef nonnull @__PRETTY_FUNCTION__._ZNK5boost10shared_ptrIN8QuantLib19StochasticProcess1D14discretizationEEptEv, ptr noundef nonnull @.str.10, i64 noundef 784)
  %.pre.i = load ptr, ptr %discretization_, align 8, !tbaa !57
  br label %_ZNK5boost10shared_ptrIN8QuantLib19StochasticProcess1D14discretizationEEptEv.exit

_ZNK5boost10shared_ptrIN8QuantLib19StochasticProcess1D14discretizationEEptEv.exit: ; preds = %if.else, %cond.false.i
  %4 = phi ptr [ %3, %if.else ], [ %.pre.i, %cond.false.i ]
  %vtable6 = load ptr, ptr %4, align 8, !tbaa !49
  %vfn7 = getelementptr inbounds i8, ptr %vtable6, i64 24
  %5 = load ptr, ptr %vfn7, align 8
  %call8 = tail call noundef double %5(ptr noundef nonnull align 8 dereferenceable(8) %4, ptr noundef nonnull align 8 dereferenceable(144) %this, double noundef %t0, double noundef %x0, double noundef %dt)
  br label %return

return:                                           ; preds = %_ZNK5boost10shared_ptrIN8QuantLib19StochasticProcess1D14discretizationEEptEv.exit, %if.then
  %retval.0 = phi double [ %call8, %_ZNK5boost10shared_ptrIN8QuantLib19StochasticProcess1D14discretizationEEptEv.exit ], [ %call4, %if.then ]
  ret double %retval.0
}